target datalayout = "e-m:e-p270:32:32-p271:32:32-p272:64:64-i64:64-i128:128-f80:128-n8:16:32:64-S128"
target triple = "x86_64-pc-linux-gnu"

%"struct.std::__1::__shared_mutex_base" = type <{ %"class.std::__1::mutex", %"class.std::__1::condition_variable", %"class.std::__1::condition_variable", i32, [4 x i8] }>
%"class.std::__1::mutex" = type { %union.pthread_mutex_t }
%union.pthread_mutex_t = type { %struct.__pthread_mutex_s }
%struct.__pthread_mutex_s = type { i32, i32, i32, i32, i32, i16, i16, %struct.__pthread_internal_list }
%struct.__pthread_internal_list = type { ptr, ptr }
%"class.std::__1::condition_variable" = type { %union.pthread_cond_t }
%union.pthread_cond_t = type { %struct.__pthread_cond_s }
%struct.__pthread_cond_s = type { %union.__atomic_wide_counter, %union.__atomic_wide_counter, [2 x i32], [2 x i32], i32, i32, [2 x i32] }
%union.__atomic_wide_counter = type { i64 }
%"class.std::__1::unique_lock" = type <{ ptr, i8, [7 x i8] }>

; Function Attrs: mustprogress nounwind uwtable
define linkonce_odr hidden void @_ZNSt3__111unique_lockINS_5mutexEED2B8ne210000Ev(ptr noundef nonnull align 8 dereferenceable(9) %0) unnamed_addr #0 comdat align 2 {
  %2 = alloca ptr, align 8
  store ptr %0, ptr %2, align 8, !tbaa !27
  %3 = load ptr, ptr %2, align 8
  %4 = getelementptr inbounds nuw %"class.std::__1::unique_lock", ptr %3, i32 0, i32 1
  %5 = load i8, ptr %4, align 8, !tbaa !32, !range !33, !noundef !34
  %6 = trunc i8 %5 to i1
  br i1 %6, label %7, label %10

7:                                                ; preds = %1
  %8 = getelementptr inbounds nuw %"class.std::__1::unique_lock", ptr %3, i32 0, i32 0
  %9 = load ptr, ptr %8, align 8, !tbaa !29
  call void @_ZNSt3__15mutex6unlockEv(ptr noundef nonnull align 8 dereferenceable(40) %9) #7
  br label %10

10:                                               ; preds = %7, %1
  ret void
}

; Function Attrs: mustprogress uwtable
define linkonce_odr hidden void @_ZNSt3__111unique_lockINS_5mutexEEC2B8ne210000ERS1_(ptr noundef nonnull align 8 dereferenceable(9) %0, ptr noundef nonnull align 8 dereferenceable(40) %1) unnamed_addr #1 comdat align 2 {
  %3 = alloca ptr, align 8
  %4 = alloca ptr, align 8
  store ptr %0, ptr %3, align 8, !tbaa !27
  store ptr %1, ptr %4, align 8, !tbaa !15
  %5 = load ptr, ptr %3, align 8
  %6 = getelementptr inbounds nuw %"class.std::__1::unique_lock", ptr %5, i32 0, i32 0
  %7 = load ptr, ptr %4, align 8, !tbaa !15
  store ptr %7, ptr %6, align 8, !tbaa !29
  %8 = getelementptr inbounds nuw %"class.std::__1::unique_lock", ptr %5, i32 0, i32 1
  store i8 1, ptr %8, align 8, !tbaa !32
  %9 = getelementptr inbounds nuw %"class.std::__1::unique_lock", ptr %5, i32 0, i32 0
  %10 = load ptr, ptr %9, align 8, !tbaa !29
  call void @_ZNSt3__15mutex4lockEv(ptr noundef nonnull align 8 dereferenceable(40) %10)
  ret void
}

; Function Attrs: mustprogress uwtable
define dso_local noundef zeroext i1 @_ZNSt3__119__shared_mutex_base15try_lock_sharedEv(ptr noundef nonnull align 8 dereferenceable(140) %0) #1 align 2 {
  %2 = alloca i1, align 1
  %3 = alloca ptr, align 8
  %4 = alloca %"class.std::__1::unique_lock", align 8
  %5 = alloca i32, align 4
  %6 = alloca i32, align 4
  store ptr %0, ptr %3, align 8, !tbaa !5
  %7 = load ptr, ptr %3, align 8
  call void @llvm.lifetime.start.p0(i64 16, ptr %4) #7
  %8 = getelementptr inbounds nuw %"struct.std::__1::__shared_mutex_base", ptr %7, i32 0, i32 0
  call void @_ZNSt3__111unique_lockINS_5mutexEEC2B8ne210000ERS1_(ptr noundef nonnull align 8 dereferenceable(9) %4, ptr noundef nonnull align 8 dereferenceable(40) %8)
  call void @llvm.lifetime.start.p0(i64 4, ptr %5) #7
  %9 = getelementptr inbounds nuw %"struct.std::__1::__shared_mutex_base", ptr %7, i32 0, i32 3
  %10 = load i32, ptr %9, align 8, !tbaa !10
  %11 = and i32 %10, 2147483647
  store i32 %11, ptr %5, align 4, !tbaa !40
  %12 = getelementptr inbounds nuw %"struct.std::__1::__shared_mutex_base", ptr %7, i32 0, i32 3
  %13 = load i32, ptr %12, align 8, !tbaa !10
  %14 = and i32 %13, -2147483648
  %15 = icmp ne i32 %14, 0
  br i1 %15, label %29, label %16

16:                                               ; preds = %1
  %17 = load i32, ptr %5, align 4, !tbaa !40
  %18 = icmp ne i32 %17, 2147483647
  br i1 %18, label %19, label %29

19:                                               ; preds = %16
  %20 = load i32, ptr %5, align 4, !tbaa !40
  %21 = add i32 %20, 1
  store i32 %21, ptr %5, align 4, !tbaa !40
  %22 = getelementptr inbounds nuw %"struct.std::__1::__shared_mutex_base", ptr %7, i32 0, i32 3
  %23 = load i32, ptr %22, align 8, !tbaa !10
  %24 = and i32 %23, -2147483648
  store i32 %24, ptr %22, align 8, !tbaa !10
  %25 = load i32, ptr %5, align 4, !tbaa !40
  %26 = getelementptr inbounds nuw %"struct.std::__1::__shared_mutex_base", ptr %7, i32 0, i32 3
  %27 = load i32, ptr %26, align 8, !tbaa !10
  %28 = or i32 %27, %25
  store i32 %28, ptr %26, align 8, !tbaa !10
  store i1 true, ptr %2, align 1
  store i32 1, ptr %6, align 4
  br label %30

29:                                               ; preds = %16, %1
  store i1 false, ptr %2, align 1
  store i32 1, ptr %6, align 4
  br label %30

30:                                               ; preds = %29, %19
  call void @llvm.lifetime.end.p0(i64 4, ptr %5) #7
  call void @_ZNSt3__111unique_lockINS_5mutexEED2B8ne210000Ev(ptr noundef nonnull align 8 dereferenceable(9) %4) #7
  call void @llvm.lifetime.end.p0(i64 16, ptr %4) #7
  %31 = load i1, ptr %2, align 1
  ret i1 %31
}