; Function Attrs: mustprogress uwtable
define dso_local noundef zeroext i1 @_ZNSt3__119__shared_mutex_base15try_lock_sharedEv(ptr noundef nonnull align 8 dereferenceable(140) %0) local_unnamed_addr #1 align 2 {
  tail call void @_ZNSt3__15mutex4lockEv(ptr noundef nonnull align 8 dereferenceable(40) %0)
  %2 = getelementptr inbounds nuw i8, ptr %0, i64 136
  %3 = load i32, ptr %2, align 8, !tbaa !13
  %or.cond = icmp ult i32 %3, 2147483647
  br i1 %or.cond, label %4, label %_ZNSt3__111unique_lockINS_5mutexEED2B8ne210000Ev.exit

4:                                                ; preds = %1
  %5 = add nuw nsw i32 %3, 1
  store i32 %5, ptr %2, align 8, !tbaa !13
  br label %_ZNSt3__111unique_lockINS_5mutexEED2B8ne210000Ev.exit

_ZNSt3__111unique_lockINS_5mutexEED2B8ne210000Ev.exit: ; preds = %1, %4
  tail call void @_ZNSt3__15mutex6unlockEv(ptr noundef nonnull align 8 dereferenceable(40) %0) #6
  ret i1 %or.cond
}